; Function Attrs: nounwind uwtable
define internal void @Float32_To_Int32_DitherClip(ptr noundef writeonly captures(none) %0, i32 noundef %1, ptr noundef readonly captures(none) %2, i32 noundef %3, i32 noundef %4, ptr noundef %5) #3 {
  %.not17 = icmp eq i32 %4, 0
  br i1 %.not17, label %._crit_edge, label %.lr.ph

.lr.ph:                                           ; preds = %6
  %7 = sext i32 %3 to i64
  %8 = sext i32 %1 to i64
  br label %9

9:                                                ; preds = %.lr.ph, %21
  %.in = phi i32 [ %4, %.lr.ph ], [ %10, %21 ]
  %.01419 = phi ptr [ %0, %.lr.ph ], [ %24, %21 ]
  %.01518 = phi ptr [ %2, %.lr.ph ], [ %23, %21 ]
  %10 = add i32 %.in, -1
  %11 = tail call float @PaUtil_GenerateFloatTriangularDither(ptr noundef %5) #9
  %12 = fpext float %11 to double
  %13 = load float, ptr %.01518, align 4, !tbaa !68
  %14 = fpext float %13 to double
  %15 = tail call double @llvm.fmuladd.f64(double %14, double 0x41DFFFFFFF800000, double %12)
  %16 = fcmp olt double %15, 0xC1E0000000000000
  br i1 %16, label %21, label %17

17:                                               ; preds = %9
  %18 = fcmp ogt double %15, 0x41DFFFFFFFC00000
  %19 = select i1 %18, double 0x41DFFFFFFFC00000, double %15
  %20 = fptosi double %19 to i32
  br label %21

21:                                               ; preds = %9, %17
  %22 = phi i32 [ %20, %17 ], [ -2147483648, %9 ]
  store i32 %22, ptr %.01419, align 4, !tbaa !70
  %23 = getelementptr inbounds float, ptr %.01518, i64 %7
  %24 = getelementptr inbounds i32, ptr %.01419, i64 %8
  %.not = icmp eq i32 %10, 0
  br i1 %.not, label %._crit_edge, label %9, !llvm.loop !75

._crit_edge:                                      ; preds = %21, %6
  ret void
}